; Function Attrs: mustprogress null_pointer_is_valid sspstrong uwtable
define void @_ZN16ExpertInfoDialog33on_groupBySummaryCheckBox_toggledEb(ptr noundef readonly align 8 captures(none) dereferenceable_or_null(232) %0, i1 noundef zeroext %1) local_unnamed_addr #0 align 2 {
  %3 = getelementptr inbounds nuw i8, ptr %0, i64 152
  %4 = load ptr, ptr %3, align 8
  %5 = getelementptr inbounds nuw i8, ptr %0, i64 144
  %6 = load ptr, ptr %5, align 8
  %7 = getelementptr inbounds nuw i8, ptr %6, i64 88
  %8 = load ptr, ptr %7, align 8
  %9 = tail call noundef zeroext i1 @_ZNK15QAbstractButton9isCheckedEv(ptr noundef align 8 dereferenceable_or_null(40) %8)
  tail call void @_ZN15ExpertInfoModel17setGroupBySummaryEb(ptr noundef align 8 dereferenceable_or_null(48) %4, i1 noundef zeroext %9)
  ret void
}